target datalayout = "e-m:e-p270:32:32-p271:32:32-p272:64:64-i64:64-i128:128-f80:128-n8:16:32:64-S128"
target triple = "x86_64-pc-linux-gnu"

%struct.Abc_Ntk_t_ = type { i32, i32, ptr, ptr, ptr, ptr, ptr, ptr, ptr, ptr, ptr, ptr, ptr, [11 x i32], i32, i32, i32, i32, ptr, i32, ptr, ptr, i32, i32, i32, double, i32, %struct.Vec_Int_t_, ptr, ptr, ptr, ptr, ptr, float, i32, ptr, ptr, ptr, ptr, ptr, ptr, ptr, ptr, ptr, ptr, ptr, ptr, ptr, ptr, ptr, ptr, ptr, ptr, ptr, ptr, ptr }
%struct.Vec_Int_t_ = type { i32, i32, ptr }
%struct.Vec_Ptr_t_ = type { i32, i32, ptr }
%struct.Abc_Obj_t_ = type { ptr, ptr, i32, i32, %struct.Vec_Int_t_, %struct.Vec_Int_t_, %union.anon, %union.anon.0 }
%union.anon = type { ptr }
%union.anon.0 = type { ptr }
%struct.FxuDataStruct = type { i32, i32, i32, i32, i32, i32, i32, i32, i32, i32, i32, i32, ptr, ptr, ptr, ptr, ptr, i32, i32 }

@.str.24 = private unnamed_addr constant [4 x i8] c"pla\00", align 1
@stdout = external global ptr, align 8
@.str.25 = private unnamed_addr constant [45 x i8] c"Abc_NtkFromPla(): Network check has failed.\0A\00", align 1

; Function Attrs: nounwind uwtable
define internal ptr @Vec_PtrEntry(ptr noundef %0, i32 noundef %1) #0 {
  %3 = alloca ptr, align 8
  %4 = alloca i32, align 4
  store ptr %0, ptr %3, align 8
  store i32 %1, ptr %4, align 4
  %5 = load ptr, ptr %3, align 8
  %6 = getelementptr inbounds %struct.Vec_Ptr_t_, ptr %5, i32 0, i32 2
  %7 = load ptr, ptr %6, align 8
  %8 = load i32, ptr %4, align 4
  %9 = sext i32 %8 to i64
  %10 = getelementptr inbounds ptr, ptr %7, i64 %9
  %11 = load ptr, ptr %10, align 8
  ret ptr %11
}

; Function Attrs: nounwind uwtable
define internal i32 @Vec_PtrSize(ptr noundef %0) #0 {
  %2 = alloca ptr, align 8
  store ptr %0, ptr %2, align 8
  %3 = load ptr, ptr %2, align 8
  %4 = getelementptr inbounds %struct.Vec_Ptr_t_, ptr %3, i32 0, i32 1
  %5 = load i32, ptr %4, align 4
  ret i32 %5
}

; Function Attrs: nounwind uwtable
define internal ptr @Abc_NtkPo(ptr noundef %0, i32 noundef %1) #0 {
  %3 = alloca ptr, align 8
  %4 = alloca i32, align 4
  store ptr %0, ptr %3, align 8
  store i32 %1, ptr %4, align 4
  %5 = load ptr, ptr %3, align 8
  %6 = getelementptr inbounds %struct.Abc_Ntk_t_, ptr %5, i32 0, i32 7
  %7 = load ptr, ptr %6, align 8
  %8 = load i32, ptr %4, align 4
  %9 = call ptr @Vec_PtrEntry(ptr noundef %7, i32 noundef %8)
  ret ptr %9
}

; Function Attrs: nounwind uwtable
define internal ptr @Abc_NtkPi(ptr noundef %0, i32 noundef %1) #0 {
  %3 = alloca ptr, align 8
  %4 = alloca i32, align 4
  store ptr %0, ptr %3, align 8
  store i32 %1, ptr %4, align 4
  %5 = load ptr, ptr %3, align 8
  %6 = getelementptr inbounds %struct.Abc_Ntk_t_, ptr %5, i32 0, i32 6
  %7 = load ptr, ptr %6, align 8
  %8 = load i32, ptr %4, align 4
  %9 = call ptr @Vec_PtrEntry(ptr noundef %7, i32 noundef %8)
  ret ptr %9
}

; Function Attrs: nounwind uwtable
define internal i32 @Abc_NtkPiNum(ptr noundef %0) #0 {
  %2 = alloca ptr, align 8
  store ptr %0, ptr %2, align 8
  %3 = load ptr, ptr %2, align 8
  %4 = getelementptr inbounds %struct.Abc_Ntk_t_, ptr %3, i32 0, i32 6
  %5 = load ptr, ptr %4, align 8
  %6 = call i32 @Vec_PtrSize(ptr noundef %5)
  ret i32 %6
}

; Function Attrs: nounwind uwtable
define internal ptr @Abc_NtkCreateNode(ptr noundef %0) #0 {
  %2 = alloca ptr, align 8
  store ptr %0, ptr %2, align 8
  %3 = load ptr, ptr %2, align 8
  %4 = call ptr @Abc_NtkCreateObj(ptr noundef %3, i32 noundef 7)
  ret ptr %4
}

; Function Attrs: nounwind uwtable
define internal ptr @Abc_NtkCreatePo(ptr noundef %0) #0 {
  %2 = alloca ptr, align 8
  store ptr %0, ptr %2, align 8
  %3 = load ptr, ptr %2, align 8
  %4 = call ptr @Abc_NtkCreateObj(ptr noundef %3, i32 noundef 3)
  ret ptr %4
}

; Function Attrs: nounwind uwtable
define internal ptr @Abc_NtkCreatePi(ptr noundef %0) #0 {
  %2 = alloca ptr, align 8
  store ptr %0, ptr %2, align 8
  %3 = load ptr, ptr %2, align 8
  %4 = call ptr @Abc_NtkCreateObj(ptr noundef %3, i32 noundef 2)
  ret ptr %4
}

; Function Attrs: nounwind uwtable
define ptr @Abc_NtkFromPla(ptr noundef %0, i32 noundef %1, i32 noundef %2) #0 {
  %4 = alloca ptr, align 8
  %5 = alloca i32, align 4
  %6 = alloca i32, align 4
  %7 = alloca %struct.FxuDataStruct, align 8
  %8 = alloca ptr, align 8
  %9 = alloca ptr, align 8
  %10 = alloca ptr, align 8
  %11 = alloca ptr, align 8
  %12 = alloca ptr, align 8
  %13 = alloca i32, align 4
  %14 = alloca i32, align 4
  store ptr %0, ptr %4, align 8
  store i32 %1, ptr %5, align 4
  store i32 %2, ptr %6, align 4
  store ptr %7, ptr %8, align 8
  %15 = call ptr @Abc_NtkAlloc(i32 noundef 2, i32 noundef 1, i32 noundef 1)
  store ptr %15, ptr %9, align 8
  %16 = call ptr @Extra_FileNameGeneric(ptr noundef @.str.24)
  %17 = load ptr, ptr %9, align 8
  %18 = getelementptr inbounds %struct.Abc_Ntk_t_, ptr %17, i32 0, i32 2
  store ptr %16, ptr %18, align 8
  store i32 0, ptr %13, align 4
  br label %19

19:                                               ; preds = %26, %3
  %20 = load i32, ptr %13, align 4
  %21 = load i32, ptr %5, align 4
  %22 = icmp slt i32 %20, %21
  br i1 %22, label %23, label %29

23:                                               ; preds = %19
  %24 = load ptr, ptr %9, align 8
  %25 = call ptr @Abc_NtkCreatePi(ptr noundef %24)
  br label %26

26:                                               ; preds = %23
  %27 = load i32, ptr %13, align 4
  %28 = add nsw i32 %27, 1
  store i32 %28, ptr %13, align 4
  br label %19, !llvm.loop !134

29:                                               ; preds = %19
  store i32 0, ptr %13, align 4
  br label %30

30:                                               ; preds = %37, %29
  %31 = load i32, ptr %13, align 4
  %32 = load i32, ptr %6, align 4
  %33 = icmp slt i32 %31, %32
  br i1 %33, label %34, label %40

34:                                               ; preds = %30
  %35 = load ptr, ptr %9, align 8
  %36 = call ptr @Abc_NtkCreatePo(ptr noundef %35)
  br label %37

37:                                               ; preds = %34
  %38 = load i32, ptr %13, align 4
  %39 = add nsw i32 %38, 1
  store i32 %39, ptr %13, align 4
  br label %30, !llvm.loop !135

40:                                               ; preds = %30
  %41 = load ptr, ptr %9, align 8
  call void @Abc_NtkAddDummyPiNames(ptr noundef %41)
  %42 = load ptr, ptr %9, align 8
  call void @Abc_NtkAddDummyPoNames(ptr noundef %42)
  store i32 0, ptr %13, align 4
  br label %43

43:                                               ; preds = %83, %40
  %44 = load i32, ptr %13, align 4
  %45 = load i32, ptr %6, align 4
  %46 = icmp slt i32 %44, %45
  br i1 %46, label %47, label %86

47:                                               ; preds = %43
  %48 = load ptr, ptr %9, align 8
  %49 = call ptr @Abc_NtkCreateNode(ptr noundef %48)
  store ptr %49, ptr %11, align 8
  store i32 0, ptr %14, align 4
  br label %50

50:                                               ; preds = %64, %47
  %51 = load i32, ptr %14, align 4
  %52 = load ptr, ptr %9, align 8
  %53 = call i32 @Abc_NtkPiNum(ptr noundef %52)
  %54 = icmp slt i32 %51, %53
  br i1 %54, label %55, label %59

55:                                               ; preds = %50
  %56 = load ptr, ptr %9, align 8
  %57 = load i32, ptr %14, align 4
  %58 = call ptr @Abc_NtkPi(ptr noundef %56, i32 noundef %57)
  store ptr %58, ptr %12, align 8
  br label %59

59:                                               ; preds = %55, %50
  %60 = phi i1 [ false, %50 ], [ true, %55 ]
  br i1 %60, label %61, label %67

61:                                               ; preds = %59
  %62 = load ptr, ptr %11, align 8
  %63 = load ptr, ptr %12, align 8
  call void @Abc_ObjAddFanin(ptr noundef %62, ptr noundef %63)
  br label %64

64:                                               ; preds = %61
  %65 = load i32, ptr %14, align 4
  %66 = add nsw i32 %65, 1
  store i32 %66, ptr %14, align 4
  br label %50, !llvm.loop !136

67:                                               ; preds = %59
  %68 = load ptr, ptr %9, align 8
  %69 = getelementptr inbounds %struct.Abc_Ntk_t_, ptr %68, i32 0, i32 30
  %70 = load ptr, ptr %69, align 8
  %71 = load ptr, ptr %4, align 8
  %72 = load i32, ptr %13, align 4
  %73 = sext i32 %72 to i64
  %74 = getelementptr inbounds ptr, ptr %71, i64 %73
  %75 = load ptr, ptr %74, align 8
  %76 = call ptr @Abc_SopRegister(ptr noundef %70, ptr noundef %75)
  %77 = load ptr, ptr %11, align 8
  %78 = getelementptr inbounds %struct.Abc_Obj_t_, ptr %77, i32 0, i32 6
  store ptr %76, ptr %78, align 8
  %79 = load ptr, ptr %9, align 8
  %80 = load i32, ptr %13, align 4
  %81 = call ptr @Abc_NtkPo(ptr noundef %79, i32 noundef %80)
  %82 = load ptr, ptr %11, align 8
  call void @Abc_ObjAddFanin(ptr noundef %81, ptr noundef %82)
  br label %83

83:                                               ; preds = %67
  %84 = load i32, ptr %13, align 4
  %85 = add nsw i32 %84, 1
  store i32 %85, ptr %13, align 4
  br label %43, !llvm.loop !137

86:                                               ; preds = %43
  %87 = load ptr, ptr %9, align 8
  %88 = call i32 @Abc_NtkCheck(ptr noundef %87)
  %89 = icmp ne i32 %88, 0
  br i1 %89, label %93, label %90

90:                                               ; preds = %86
  %91 = load ptr, ptr @stdout, align 8
  %92 = call i32 (ptr, ptr, ...) @fprintf(ptr noundef %91, ptr noundef @.str.25) #11
  br label %93

93:                                               ; preds = %90, %86
  %94 = load ptr, ptr %8, align 8
  call void @Abc_NtkSetDefaultFxParams(ptr noundef %94)
  %95 = load ptr, ptr %9, align 8
  %96 = load ptr, ptr %8, align 8
  %97 = call i32 @Abc_NtkFastExtract(ptr noundef %95, ptr noundef %96)
  %98 = load ptr, ptr %8, align 8
  call void @Abc_NtkFxuFreeInfo(ptr noundef %98)
  %99 = load ptr, ptr %9, align 8
  %100 = call ptr @Abc_NtkStrash(ptr noundef %99, i32 noundef 0, i32 noundef 1, i32 noundef 0)
  store ptr %100, ptr %10, align 8
  %101 = load ptr, ptr %9, align 8
  call void @Abc_NtkDelete(ptr noundef %101)
  %102 = load ptr, ptr %10, align 8
  ret ptr %102
}