; Function Attrs: nounwind uwtable
define ptr @Abc_NtkFromPla(ptr noundef readonly captures(none) %0, i32 noundef %1, i32 noundef %2) local_unnamed_addr #0 {
  %4 = alloca %struct.FxuDataStruct, align 8
  %5 = tail call ptr @Abc_NtkAlloc(i32 noundef 2, i32 noundef 1, i32 noundef 1) #28
  %6 = tail call ptr @Extra_FileNameGeneric(ptr noundef nonnull @.str.24) #28
  %7 = getelementptr inbounds nuw i8, ptr %5, i64 8
  store ptr %6, ptr %7, align 8
  %8 = icmp sgt i32 %1, 0
  br i1 %8, label %.lr.ph, label %.preheader

.preheader:                                       ; preds = %.lr.ph, %3
  %9 = icmp sgt i32 %2, 0
  br i1 %9, label %.lr.ph42, label %._crit_edge52.critedge

.lr.ph:                                           ; preds = %3, %.lr.ph
  %.03640 = phi i32 [ %11, %.lr.ph ], [ 0, %3 ]
  %10 = tail call ptr @Abc_NtkCreateObj(ptr noundef %5, i32 noundef 2) #28
  %11 = add nuw nsw i32 %.03640, 1
  %exitcond.not = icmp eq i32 %11, %1
  br i1 %exitcond.not, label %.preheader, label %.lr.ph, !llvm.loop !131

.lr.ph42:                                         ; preds = %.preheader, %.lr.ph42
  %.141 = phi i32 [ %13, %.lr.ph42 ], [ 0, %.preheader ]
  %12 = tail call ptr @Abc_NtkCreateObj(ptr noundef %5, i32 noundef 3) #28
  %13 = add nuw nsw i32 %.141, 1
  %exitcond53.not = icmp eq i32 %13, %2
  br i1 %exitcond53.not, label %._crit_edge, label %.lr.ph42, !llvm.loop !132

._crit_edge:                                      ; preds = %.lr.ph42
  tail call void @Abc_NtkAddDummyPiNames(ptr noundef %5) #28
  tail call void @Abc_NtkAddDummyPoNames(ptr noundef %5) #28
  %14 = getelementptr i8, ptr %5, i64 40
  %15 = getelementptr inbounds nuw i8, ptr %5, i64 256
  %16 = getelementptr i8, ptr %5, i64 48
  %wide.trip.count = zext nneg i32 %2 to i64
  br label %17

17:                                               ; preds = %._crit_edge, %.critedge
  %indvars.iv55 = phi i64 [ 0, %._crit_edge ], [ %indvars.iv.next56, %.critedge ]
  %18 = tail call ptr @Abc_NtkCreateObj(ptr noundef %5, i32 noundef 7) #28
  %.val43 = load ptr, ptr %14, align 8
  %19 = getelementptr i8, ptr %.val43, i64 4
  %.val.val44 = load i32, ptr %19, align 4
  %20 = icmp sgt i32 %.val.val44, 0
  br i1 %20, label %.lr.ph48, label %.critedge

.lr.ph48:                                         ; preds = %17, %.lr.ph48
  %indvars.iv = phi i64 [ %indvars.iv.next, %.lr.ph48 ], [ 0, %17 ]
  %.val46 = phi ptr [ %.val, %.lr.ph48 ], [ %.val43, %17 ]
  %21 = getelementptr i8, ptr %.val46, i64 8
  %.val38.val = load ptr, ptr %21, align 8
  %22 = getelementptr inbounds nuw ptr, ptr %.val38.val, i64 %indvars.iv
  %23 = load ptr, ptr %22, align 8
  tail call void @Abc_ObjAddFanin(ptr noundef %18, ptr noundef %23) #28
  %indvars.iv.next = add nuw nsw i64 %indvars.iv, 1
  %.val = load ptr, ptr %14, align 8
  %24 = getelementptr i8, ptr %.val, i64 4
  %.val.val = load i32, ptr %24, align 4
  %25 = sext i32 %.val.val to i64
  %26 = icmp slt i64 %indvars.iv.next, %25
  br i1 %26, label %.lr.ph48, label %.critedge, !llvm.loop !133

.critedge:                                        ; preds = %.lr.ph48, %17
  %27 = load ptr, ptr %15, align 8
  %28 = getelementptr inbounds nuw ptr, ptr %0, i64 %indvars.iv55
  %29 = load ptr, ptr %28, align 8
  %30 = tail call ptr @Abc_SopRegister(ptr noundef %27, ptr noundef %29) #28
  %31 = getelementptr inbounds nuw i8, ptr %18, i64 56
  store ptr %30, ptr %31, align 8
  %.val39 = load ptr, ptr %16, align 8
  %32 = getelementptr i8, ptr %.val39, i64 8
  %.val39.val = load ptr, ptr %32, align 8
  %33 = getelementptr inbounds nuw ptr, ptr %.val39.val, i64 %indvars.iv55
  %34 = load ptr, ptr %33, align 8
  tail call void @Abc_ObjAddFanin(ptr noundef %34, ptr noundef %18) #28
  %indvars.iv.next56 = add nuw nsw i64 %indvars.iv55, 1
  %exitcond58.not = icmp eq i64 %indvars.iv.next56, %wide.trip.count
  br i1 %exitcond58.not, label %._crit_edge52, label %17, !llvm.loop !134

._crit_edge52.critedge:                           ; preds = %.preheader
  tail call void @Abc_NtkAddDummyPiNames(ptr noundef %5) #28
  tail call void @Abc_NtkAddDummyPoNames(ptr noundef %5) #28
  br label %._crit_edge52

._crit_edge52:                                    ; preds = %.critedge, %._crit_edge52.critedge
  %35 = tail call i32 @Abc_NtkCheck(ptr noundef %5) #28
  %.not = icmp eq i32 %35, 0
  br i1 %.not, label %36, label %39

36:                                               ; preds = %._crit_edge52
  %37 = load ptr, ptr @stdout, align 8
  %38 = tail call i64 @fwrite(ptr nonnull @.str.25, i64 44, i64 1, ptr %37)
  br label %39

39:                                               ; preds = %36, %._crit_edge52
  call void @Abc_NtkSetDefaultFxParams(ptr noundef nonnull %4) #28
  %40 = call i32 @Abc_NtkFastExtract(ptr noundef %5, ptr noundef nonnull %4) #28
  call void @Abc_NtkFxuFreeInfo(ptr noundef nonnull %4) #28
  %41 = call ptr @Abc_NtkStrash(ptr noundef %5, i32 noundef 0, i32 noundef 1, i32 noundef 0) #28
  call void @Abc_NtkDelete(ptr noundef %5) #28
  ret ptr %41
}